; Function Attrs: mustprogress nofree norecurse nosync nounwind willreturn memory(readwrite, inaccessiblemem: none) uwtable
define dso_local noundef ptr @_ZN5ImGui21TableGetBoundSettingsEP10ImGuiTable(ptr noundef readonly captures(none) %0) local_unnamed_addr #13 {
  %2 = getelementptr inbounds nuw i8, ptr %0, i64 100
  %3 = load i32, ptr %2, align 4, !tbaa !287
  %.not = icmp eq i32 %3, -1
  br i1 %.not, label %15, label %4

4:                                                ; preds = %1
  %5 = load ptr, ptr @GImGui, align 8, !tbaa !4
  %6 = getelementptr inbounds nuw i8, ptr %5, i64 9600
  %7 = load ptr, ptr %6, align 8, !tbaa !324
  %8 = sext i32 %3 to i64
  %9 = getelementptr inbounds i8, ptr %7, i64 %8
  %10 = getelementptr inbounds nuw i8, ptr %9, i64 14
  %11 = load i16, ptr %10, align 2, !tbaa !329
  %12 = sext i16 %11 to i32
  %13 = getelementptr inbounds nuw i8, ptr %0, i64 108
  %14 = load i32, ptr %13, align 4, !tbaa !207
  %.not10.not = icmp sgt i32 %14, %12
  br i1 %.not10.not, label %.thread, label %15

.thread:                                          ; preds = %4
  store i32 0, ptr %9, align 4, !tbaa !325
  br label %15

15:                                               ; preds = %1, %.thread, %4
  %.1 = phi ptr [ %9, %4 ], [ null, %.thread ], [ null, %1 ]
  ret ptr %.1
}